; Function Attrs: nounwind uwtable
define hidden ptr @_PyDictView_New(ptr noundef %0, ptr noundef %1) local_unnamed_addr #0 {
  %3 = icmp eq ptr %0, null
  br i1 %3, label %4, label %5

4:                                                ; preds = %2
  tail call void @_PyErr_BadInternalCall(ptr noundef nonnull @.str.3, i32 noundef 5894) #23
  br label %48

5:                                                ; preds = %2
  %6 = getelementptr i8, ptr %0, i64 8
  %.val13 = load ptr, ptr %6, align 8, !tbaa !25
  %7 = getelementptr i8, ptr %.val13, i64 168
  %.val14 = load i64, ptr %7, align 8, !tbaa !28
  %8 = and i64 %.val14, 536870912
  %.not = icmp eq i64 %8, 0
  br i1 %.not, label %9, label %16

9:                                                ; preds = %5
  %10 = load ptr, ptr @PyExc_TypeError, align 8, !tbaa !64
  %11 = getelementptr inbounds nuw i8, ptr %1, i64 24
  %12 = load ptr, ptr %11, align 8, !tbaa !202
  %13 = getelementptr inbounds nuw i8, ptr %.val13, i64 24
  %14 = load ptr, ptr %13, align 8, !tbaa !202
  %15 = tail call ptr (ptr, ptr, ...) @PyErr_Format(ptr noundef %10, ptr noundef nonnull @.str.33, ptr noundef %12, ptr noundef %14) #23
  br label %48

16:                                               ; preds = %5
  %17 = tail call ptr @_PyObject_GC_New(ptr noundef %1) #23
  %18 = icmp eq ptr %17, null
  br i1 %18, label %48, label %19

19:                                               ; preds = %16
  %20 = load i32, ptr %0, align 8, !tbaa !41
  %21 = icmp slt i32 %20, 0
  br i1 %21, label %_Py_NewRef.exit, label %22

22:                                               ; preds = %19
  %23 = add nuw i32 %20, 1
  store i32 %23, ptr %0, align 8, !tbaa !41
  br label %_Py_NewRef.exit

_Py_NewRef.exit:                                  ; preds = %19, %22
  %24 = getelementptr inbounds nuw i8, ptr %17, i64 16
  store ptr %0, ptr %24, align 8, !tbaa !203
  %25 = getelementptr i8, ptr %17, i64 -16
  %26 = tail call align 8 ptr @llvm.threadlocal.address.p0(ptr align 8 @_Py_tss_tstate)
  %27 = load ptr, ptr %26, align 8, !tbaa !4
  %28 = getelementptr inbounds nuw i8, ptr %27, i64 16
  %29 = load ptr, ptr %28, align 8, !tbaa !9
  %30 = getelementptr inbounds nuw i8, ptr %29, i64 7424
  %31 = getelementptr inbounds nuw i8, ptr %29, i64 7432
  %32 = load i64, ptr %31, align 8, !tbaa !69
  %33 = inttoptr i64 %32 to ptr
  %34 = ptrtoint ptr %25 to i64
  %35 = load i64, ptr %33, align 8, !tbaa !71
  %36 = and i64 %35, 3
  %37 = or i64 %36, %34
  store i64 %37, ptr %33, align 8, !tbaa !71
  %38 = getelementptr i8, ptr %17, i64 -8
  %39 = load i64, ptr %38, align 8, !tbaa !69
  %40 = and i64 %39, 3
  %41 = or i64 %40, %32
  store i64 %41, ptr %38, align 8, !tbaa !69
  %42 = getelementptr inbounds nuw i8, ptr %29, i64 7632
  %43 = load i32, ptr %42, align 8, !tbaa !72
  %44 = xor i32 %43, 1
  %45 = sext i32 %44 to i64
  %46 = ptrtoint ptr %30 to i64
  %47 = or i64 %45, %46
  store i64 %47, ptr %25, align 8, !tbaa !71
  store i64 %34, ptr %31, align 8, !tbaa !69
  br label %48

48:                                               ; preds = %16, %_Py_NewRef.exit, %9, %4
  %.0 = phi ptr [ null, %4 ], [ %17, %_Py_NewRef.exit ], [ null, %9 ], [ null, %16 ]
  ret ptr %.0
}